; Function Attrs: inlinehint nounwind uwtable
define internal fastcc void @Gia_ManAppendCo(ptr noundef %0, i32 noundef %1) unnamed_addr #5 {
  %3 = tail call fastcc ptr @Gia_ManAppendObj(ptr noundef %0)
  %4 = load i64, ptr %3, align 4
  %5 = or i64 %4, 2147483648
  store i64 %5, ptr %3, align 4
  %6 = getelementptr i8, ptr %0, i64 32
  %.val18 = load ptr, ptr %6, align 8, !tbaa !35
  %7 = ptrtoint ptr %3 to i64
  %8 = ptrtoint ptr %.val18 to i64
  %9 = sub i64 %7, %8
  %10 = sdiv exact i64 %9, 12
  %11 = trunc i64 %10 to i32
  %12 = lshr i32 %1, 1
  %13 = sub i32 %11, %12
  %14 = and i32 %13, 536870911
  %15 = zext nneg i32 %14 to i64
  %16 = and i64 %5, -1073741824
  %17 = shl i32 %1, 29
  %18 = and i32 %17, 536870912
  %19 = zext nneg i32 %18 to i64
  %20 = or disjoint i64 %16, %19
  %21 = or disjoint i64 %20, %15
  store i64 %21, ptr %3, align 4
  %22 = getelementptr inbounds nuw i8, ptr %0, i64 72
  %23 = load ptr, ptr %22, align 8, !tbaa !38
  %24 = getelementptr i8, ptr %23, i64 4
  %.val = load i32, ptr %24, align 4, !tbaa !34
  %25 = and i32 %.val, 536870911
  %26 = zext nneg i32 %25 to i64
  %27 = shl nuw nsw i64 %26, 32
  %28 = and i64 %21, -2305843004918726657
  %29 = or disjoint i64 %28, %27
  store i64 %29, ptr %3, align 4
  %30 = load ptr, ptr %22, align 8, !tbaa !38
  %.val19 = load ptr, ptr %6, align 8, !tbaa !35
  %31 = ptrtoint ptr %.val19 to i64
  %32 = sub i64 %7, %31
  %33 = sdiv exact i64 %32, 12
  %34 = trunc i64 %33 to i32
  %35 = getelementptr inbounds nuw i8, ptr %30, i64 4
  %36 = load i32, ptr %35, align 4, !tbaa !34
  %37 = load i32, ptr %30, align 8, !tbaa !36
  %38 = icmp eq i32 %36, %37
  br i1 %38, label %39, label %.Vec_IntGrow.exit10_crit_edge.i

.Vec_IntGrow.exit10_crit_edge.i:                  ; preds = %2
  %.phi.trans.insert.i = getelementptr inbounds nuw i8, ptr %30, i64 8
  %.pre.i = load ptr, ptr %.phi.trans.insert.i, align 8, !tbaa !37
  br label %Vec_IntPush.exit

39:                                               ; preds = %2
  %40 = icmp slt i32 %36, 16
  br i1 %40, label %41, label %49

41:                                               ; preds = %39
  %42 = getelementptr inbounds nuw i8, ptr %30, i64 8
  %43 = load ptr, ptr %42, align 8, !tbaa !37
  %.not9.i.i = icmp eq ptr %43, null
  br i1 %.not9.i.i, label %46, label %44

44:                                               ; preds = %41
  %45 = tail call dereferenceable_or_null(64) ptr @realloc(ptr noundef nonnull %43, i64 noundef 64) #25
  br label %Vec_IntGrow.exit.i

46:                                               ; preds = %41
  %47 = tail call noalias dereferenceable_or_null(64) ptr @malloc(i64 noundef 64) #26
  br label %Vec_IntGrow.exit.i

Vec_IntGrow.exit.i:                               ; preds = %46, %44
  %48 = phi ptr [ %45, %44 ], [ %47, %46 ]
  store ptr %48, ptr %42, align 8, !tbaa !37
  store i32 16, ptr %30, align 8, !tbaa !36
  br label %Vec_IntPush.exit

49:                                               ; preds = %39
  %50 = shl nuw nsw i32 %36, 1
  %51 = getelementptr inbounds nuw i8, ptr %30, i64 8
  %52 = load ptr, ptr %51, align 8, !tbaa !37
  %.not9.i9.i = icmp eq ptr %52, null
  %53 = zext nneg i32 %50 to i64
  %54 = shl nuw nsw i64 %53, 2
  br i1 %.not9.i9.i, label %57, label %55

55:                                               ; preds = %49
  %56 = tail call ptr @realloc(ptr noundef nonnull %52, i64 noundef %54) #25
  br label %59

57:                                               ; preds = %49
  %58 = tail call noalias ptr @malloc(i64 noundef %54) #26
  br label %59

59:                                               ; preds = %57, %55
  %60 = phi ptr [ %56, %55 ], [ %58, %57 ]
  store ptr %60, ptr %51, align 8, !tbaa !37
  store i32 %50, ptr %30, align 8, !tbaa !36
  br label %Vec_IntPush.exit

Vec_IntPush.exit:                                 ; preds = %.Vec_IntGrow.exit10_crit_edge.i, %Vec_IntGrow.exit.i, %59
  %61 = phi ptr [ %.pre.i, %.Vec_IntGrow.exit10_crit_edge.i ], [ %60, %59 ], [ %48, %Vec_IntGrow.exit.i ]
  %62 = load i32, ptr %35, align 4, !tbaa !34
  %63 = add nsw i32 %62, 1
  store i32 %63, ptr %35, align 4, !tbaa !34
  %64 = sext i32 %62 to i64
  %65 = getelementptr inbounds i32, ptr %61, i64 %64
  store i32 %34, ptr %65, align 4, !tbaa !5
  %66 = getelementptr inbounds nuw i8, ptr %0, i64 232
  %67 = load ptr, ptr %66, align 8, !tbaa !39
  %.not = icmp eq ptr %67, null
  br i1 %.not, label %73, label %68

68:                                               ; preds = %Vec_IntPush.exit
  %69 = load i64, ptr %3, align 4
  %70 = and i64 %69, 536870911
  %71 = sub nsw i64 0, %70
  %72 = getelementptr inbounds %struct.Gia_Obj_t_, ptr %3, i64 %71
  tail call void @Gia_ObjAddFanout(ptr noundef nonnull %0, ptr noundef nonnull %72, ptr noundef nonnull %3) #23
  br label %73

73:                                               ; preds = %68, %Vec_IntPush.exit
  ret void
}